(dp0
S'cookies'
p1
(dp2
S'wxloadtime'
p3
S'1564039820'
p4
sS'webwx_data_ticket'
p5
S'gSd6kHBm2q6GBWlchmG/hst9'
p6
sS'wxuin'
p7
S'233112195'
p8
sS'login_frequency'
p9
S'2'
p10
sS'MM_WX_NOTIFY_STATE'
p11
S'1'
p12
sS'MM_WX_SOUND_STATE'
p13
g12
sS'webwx_auth_ticket'
p14
S'CIsBEKyTgc8CGoAB3RVyRb9jlVxx4jQO2Xf0jZJ8efL/y7dn4vonKpbxuJ0lDXXklv8bESLWFu4r85DX4TVW+GPZzrFrEUCk/qx2UvIsM0rq+e2zkxdmo9k++mLrY1bzg/hubFDQ6iuLkzLR3Q0Ko47lKIbOpYZvYaH4JUy9EXXS2D2yVhKbvfm4ivc='
p15
sS'last_wxuin'
p16
S'1333458307'
p17
sS'webwxuvid'
p18
S'90370d0ad32b643f56c11bd613587fcdf2315305e1a78925cc62997d7a895894d7627e2b309404a2161651ffc559dab5'
p19
sS'wxpluginkey'
p20
S'1544084490'
p21
sS'wxsid'
p22
S'eE6Kc4MbNHAlfQ8t'
p23
sS'mm_lang'
p24
S'zh_CN'
p25
ssS'version'
p26
S'1.3.10'
p27
sS'storage'
p28
(dp29
S'userName'
p30
V@de321b58d8decee04673742e232e5eaa
p31
sS'lastInputUserName'
p32
NsS'memberList'
p33
ccopy_reg
_reconstructor
p34
(citchat.storage.templates
ContactList
p35
c__builtin__
list
p36
(lp37
g34
(citchat.storage.templates
User
p38
c__builtin__
dict
p39
(dp40
S'UserName'
p41
g31
sS'City'
p42
S''
p43
sS'DisplayName'
p44
g43
sS'UniFriend'
p45
I0
sS'OwnerUin'
p46
I0
sS'MemberList'
p47
g34
(g35
g36
(lp48
tp49
Rp50
I1
bsS'PYQuanPin'
p51
V
p52
sS'RemarkPYInitial'
p53
g52
sS'Uin'
p54
I233112195
sS'AppAccountFlag'
p55
I0
sS'VerifyFlag'
p56
I0
sS'Province'
p57
g43
sS'KeyWord'
p58
g43
sS'RemarkName'
p59
g52
sS'PYInitial'
p60
g52
sS'ChatRoomId'
p61
I0
sS'HideInputBarFlag'
p62
I0
sVHeadImgFlag
p63
I1
sS'EncryChatRoomId'
p64
g43
sS'AttrStatus'
p65
I0
sS'SnsFlag'
p66
I17
sS'MemberCount'
p67
I0
sVWebWxPluginSwitch
p68
I0
sS'Alias'
p69
g43
sS'Signature'
p70
V\u4e13\u4e1a\uff0c\u4e13\u6ce8\uff01
p71
sS'ContactFlag'
p72
I0
sS'NickName'
p73
V AA.\u6731\u6797
p74
sS'RemarkPYQuanPin'
p75
g52
sS'HeadImgUrl'
p76
V/cgi-bin/mmwebwx-bin/webwxgeticon?seq=1499184326&username=@de321b58d8decee04673742e232e5eaa&skey=@crypt_dca481_b35c2939b81a11ffba13d48df082b1d0
p77
sS'Sex'
p78
I1
sS'StarFriend'
p79
I0
sS'Statues'
p80
I0
stp81
Rp82
I1
bag34
(g38
g39
(dp83
VUserName
p84
V@226e54e02b37aa38bf09bb9c0c9314a9
p85
sVCity
p86
V\u957f\u6c99
p87
sVSnsFlag
p88
I49
sVDisplayName
p89
g52
sVUniFriend
p90
I0
sVMemberCount
p91
I0
sVOwnerUin
p92
I0
sVMemberList
p93
g50
sVAlias
p94
g52
sVPYQuanPin
p95
Vazhen
p96
sVSignature
p97
V\u6211\u7684\u624b\u673a\u65b0\u53f7\u780118817154360
p98
sVRemarkPYInitial
p99
g52
sVContactFlag
p100
I3
sVUin
p101
I0
sVNickName
p102
V\u963f\u73cd
p103
sVAppAccountFlag
p104
I0
sVVerifyFlag
p105
I0
sVRemarkPYQuanPin
p106
g52
sVHeadImgUrl
p107
V/cgi-bin/mmwebwx-bin/webwxgeticon?seq=701123382&username=@226e54e02b37aa38bf09bb9c0c9314a9&skey=@crypt_dca481_b35c2939b81a11ffba13d48df082b1d0
p108
sVKeyWord
p109
VWZ1
p110
sVProvince
p111
V\u6e56\u5357
p112
sVPYInitial
p113
VAZ
p114
sVRemarkName
p115
V\u5434\u73cd
p116
sVIsOwner
p117
I0
sVSex
p118
I2
sVStarFriend
p119
I0
sVHideInputBarFlag
p120
I0
sVChatRoomId
p121
I0
sVEncryChatRoomId
p122
g52
sVAttrStatus
p123
I98341
sVStatues
p124
I0
stp125
Rp126
I1
bag34
(g38
g39
(dp127
VUserName
p128
V@47f58b602a5f8d3628a129976b33bec65f0593f5f53df766bfb52772b39413ce
p129
sVCity
p130
V\u957f\u6c99
p131
sVSnsFlag
p132
I17
sVDisplayName
p133
g52
sVUniFriend
p134
I0
sVMemberCount
p135
I0
sVOwnerUin
p136
I0
sVMemberList
p137
g50
sVAlias
p138
g52
sVPYQuanPin
p139
Vkangxiaohuaspanclassemojiemoji1f33cspan
p140
sVSignature
p141
V\u5728\u7e41\u534e\u7684\u4e16\u754c\u91cc\uff0c\u8d8a\u8bfb\u8d8a\u660e\u767d\u81ea\u5df1\u000a<span class="emoji emoji2764"></span>\ufe0f\u9ea6\u5409\u4e3d\u4e00\u7ea7\u603b\u4ee3\uff0c\u8bda\u62db\u4ee3\u7406
p142
sVRemarkPYInitial
p143
g52
sVContactFlag
p144
I3
sVUin
p145
I0
sVNickName
p146
V\u5eb7\u5c0f\u82b1\U0001f33c
p147
sVAppAccountFlag
p148
I0
sVVerifyFlag
p149
I0
sVRemarkPYQuanPin
p150
g52
sVHeadImgUrl
p151
V/cgi-bin/mmwebwx-bin/webwxgeticon?seq=712878936&username=@47f58b602a5f8d3628a129976b33bec65f0593f5f53df766bfb52772b39413ce&skey=@crypt_dca481_b35c2939b81a11ffba13d48df082b1d0
p152
sVKeyWord
p153
g52
sVProvince
p154
V\u6e56\u5357
p155
sVPYInitial
p156
VKXHSPANCLASSEMOJIEMOJI1F33CSPAN
p157
sVRemarkName
p158
g52
sVIsOwner
p159
I0
sVSex
p160
I2
sVStarFriend
p161
I0
sVHideInputBarFlag
p162
I0
sVChatRoomId
p163
I0
sVEncryChatRoomId
p164
g52
sVAttrStatus
p165
L2147586085L
sVStatues
p166
I0
stp167
Rp168
I1
batp169
Rp170
I1
bsS'chatroomList'
p171
g34
(g35
g36
(lp172
g34
(citchat.storage.templates
Chatroom
p173
g39
(dp174
VUserName
p175
V@@fe5ce13e49efbda8211a8016c10529f0dba9c1358e7a77d386c52ad16e409af4
p176
sVCity
p177
g52
sVDisplayName
p178
g52
sVUniFriend
p179
I0
sS'Self'
p180
g34
(g38
g39
(dp181
g41
g31
sg42
g43
sg44
g43
sg45
I0
sg46
I0
sg47
g34
(g35
g36
(lp182
tp183
Rp184
I1
bsg51
g52
sg53
g52
sg54
I233112195
sg55
I0
sg56
I0
sg57
g43
sg58
g43
sg59
g52
sg60
g52
sg61
I0
sg62
I0
sg63
I1
sg64
g43
sg65
I0
sg66
I17
sg67
I0
sg68
I0
sg69
g43
sg70
g71
sg72
I0
sg73
g74
sg75
g52
sg76
g77
sg78
I1
sg79
I0
sg80
I0
stp185
Rp186
I1
bsVMemberList
p187
g34
(g35
g36
(lp188
tp189
Rp190
I1
bsVPYQuanPin
p191
g52
sVRemarkPYInitial
p192
g52
sVSex
p193
I0
sVAppAccountFlag
p194
I0
sVVerifyFlag
p195
I0
sVProvince
p196
g52
sVKeyWord
p197
g52
sVRemarkName
p198
g52
sVPYInitial
p199
g52
sVIsOwner
p200
I0
sVChatRoomId
p201
I0
sVHideInputBarFlag
p202
I0
sVEncryChatRoomId
p203
g52
sVAttrStatus
p204
I0
sVSnsFlag
p205
I0
sVMemberCount
p206
I75
sVOwnerUin
p207
I0
sVAlias
p208
g52
sS'IsAdmin'
p209
NsVSignature
p210
g52
sVContactFlag
p211
I0
sVNickName
p212
V\u65b0\u957f\u6d77\u521b\u4e1a\u57fa\u57303C\u4f01\u4e1a\u670d\u52a1\u7fa4
p213
sVRemarkPYQuanPin
p214
g52
sVHeadImgUrl
p215
V/cgi-bin/mmwebwx-bin/webwxgetheadimg?seq=0&username=@@fe5ce13e49efbda8211a8016c10529f0dba9c1358e7a77d386c52ad16e409af4&skey=@crypt_dca481_b35c2939b81a11ffba13d48df082b1d0
p216
sVUin
p217
I0
sVStarFriend
p218
I0
sVStatues
p219
I0
stp220
Rp221
I1
bag34
(g173
g39
(dp222
VUserName
p223
V@@5aafcc0434228ba20f48b9c01d3d8da67a70f1eb0040e701102d77a8bc10aa89
p224
sVCity
p225
g52
sVDisplayName
p226
g52
sVUniFriend
p227
I0
sg180
g34
(g38
g39
(dp228
g41
g31
sg42
g43
sg44
g43
sg45
I0
sg46
I0
sg47
g34
(g35
g36
(lp229
tp230
Rp231
I1
bsg51
g52
sg53
g52
sg54
I233112195
sg55
I0
sg56
I0
sg57
g43
sg58
g43
sg59
g52
sg60
g52
sg61
I0
sg62
I0
sg63
I1
sg64
g43
sg65
I0
sg66
I17
sg67
I0
sg68
I0
sg69
g43
sg70
g71
sg72
I0
sg73
g74
sg75
g52
sg76
g77
sg78
I1
sg79
I0
sg80
I0
stp232
Rp233
I1
bsVMemberList
p234
g34
(g35
g36
(lp235
tp236
Rp237
I1
bsVPYQuanPin
p238
g52
sVRemarkPYInitial
p239
g52
sVSex
p240
I0
sVAppAccountFlag
p241
I0
sVVerifyFlag
p242
I0
sVProvince
p243
g52
sVKeyWord
p244
g52
sVRemarkName
p245
g52
sVPYInitial
p246
g52
sVIsOwner
p247
I0
sVChatRoomId
p248
I0
sVHideInputBarFlag
p249
I0
sVEncryChatRoomId
p250
g52
sVAttrStatus
p251
I0
sVSnsFlag
p252
I0
sVMemberCount
p253
I43
sVOwnerUin
p254
I0
sVAlias
p255
g52
sg209
NsVSignature
p256
g52
sVContactFlag
p257
I0
sVNickName
p258
V\u4e94\u798f\u4e34\u95e8B\u73ed  \u6c34\u6676
p259
sVRemarkPYQuanPin
p260
g52
sVHeadImgUrl
p261
V/cgi-bin/mmwebwx-bin/webwxgetheadimg?seq=0&username=@@5aafcc0434228ba20f48b9c01d3d8da67a70f1eb0040e701102d77a8bc10aa89&skey=@crypt_dca481_b35c2939b81a11ffba13d48df082b1d0
p262
sVUin
p263
I0
sVStarFriend
p264
I0
sVStatues
p265
I0
stp266
Rp267
I1
batp268
Rp269
I1
bsS'nickName'
p270
g74
sS'mpList'
p271
g34
(g35
g36
(lp272
g34
(citchat.storage.templates
MassivePlatform
p273
g39
(dp274
VUserName
p275
V@74c627e8efd7a3cde84b820d216353e2
p276
sVCity
p277
V\u671d\u9633
p278
sVSnsFlag
p279
I0
sVDisplayName
p280
g52
sVUniFriend
p281
I0
sVMemberCount
p282
I0
sVOwnerUin
p283
I0
sVMemberList
p284
g50
sVAlias
p285
g52
sVPYQuanPin
p286
VCSDN
p287
sVSignature
p288
V\u4e13\u4e1a\u7684\u4e2d\u6587 IT \u6280\u672f\u793e\u533a\uff0c\u4e0e\u5343\u4e07\u6280\u672f\u4eba\u5171\u6210\u957f\u3002
p289
sVRemarkPYInitial
p290
g52
sVContactFlag
p291
I3
sVUin
p292
I0
sVNickName
p293
VCSDN
p294
sVAppAccountFlag
p295
I0
sVVerifyFlag
p296
I24
sVRemarkPYQuanPin
p297
g52
sVHeadImgUrl
p298
V/cgi-bin/mmwebwx-bin/webwxgeticon?seq=712830013&username=@74c627e8efd7a3cde84b820d216353e2&skey=@crypt_dca481_b35c2939b81a11ffba13d48df082b1d0
p299
sVKeyWord
p300
Vgh_
p301
sVProvince
p302
V\u5317\u4eac
p303
sVPYInitial
p304
VCSDN
p305
sVRemarkName
p306
g52
sVIsOwner
p307
I0
sVSex
p308
I0
sVStarFriend
p309
I0
sVHideInputBarFlag
p310
I0
sVChatRoomId
p311
I0
sVEncryChatRoomId
p312
g52
sVAttrStatus
p313
I0
sVStatues
p314
I0
stp315
Rp316
I1
bag34
(g273
g39
(dp317
VUserName
p318
V@b2e62f470541f40c6a7897d2e4ab0693
p319
sVCity
p320
g52
sVSnsFlag
p321
I0
sVDisplayName
p322
g52
sVUniFriend
p323
I0
sVMemberCount
p324
I0
sVOwnerUin
p325
I0
sVMemberList
p326
g50
sVAlias
p327
g52
sVPYQuanPin
p328
Vtengxunlicaitong
p329
sVSignature
p330
V\u817e\u8baf\u516c\u53f8\u7406\u8d22\u901a\u5b98\u65b9\u8d26\u53f7\uff0c\u7406\u8d22\u901a\u662f\u8d22\u4ed8\u901a\u643a\u624b\u591a\u5bb6\u91d1\u878d\u673a\u6784\u63a8\u51fa\u7684\u591a\u6837\u5316\u7406\u8d22\u670d\u52a1\u5e73\u53f0\u3002
p331
sVRemarkPYInitial
p332
g52
sVContactFlag
p333
I3
sVUin
p334
I0
sVNickName
p335
V\u817e\u8baf\u7406\u8d22\u901a
p336
sVAppAccountFlag
p337
I0
sVVerifyFlag
p338
I24
sVRemarkPYQuanPin
p339
g52
sVHeadImgUrl
p340
V/cgi-bin/mmwebwx-bin/webwxgeticon?seq=637181773&username=@b2e62f470541f40c6a7897d2e4ab0693&skey=@crypt_dca481_b35c2939b81a11ffba13d48df082b1d0
p341
sVKeyWord
p342
Vgh_
p343
sVProvince
p344
V\u5e7f\u4e1c
p345
sVPYInitial
p346
VTXLCT
p347
sVRemarkName
p348
g52
sVIsOwner
p349
I0
sVSex
p350
I0
sVStarFriend
p351
I0
sVHideInputBarFlag
p352
I0
sVChatRoomId
p353
I0
sVEncryChatRoomId
p354
g52
sVAttrStatus
p355
I0
sVStatues
p356
I0
stp357
Rp358
I1
bag34
(g273
g39
(dp359
VUserName
p360
V@c8b79136144247ce2b68b6a85b7a8498
p361
sVCity
p362
V\u957f\u6c99
p363
sVSnsFlag
p364
I0
sVDisplayName
p365
g52
sVUniFriend
p366
I0
sVMemberCount
p367
I0
sVOwnerUin
p368
I0
sVMemberList
p369
g50
sVAlias
p370
g52
sVPYQuanPin
p371
Vhunagonganfuwupingtai
p372
sVSignature
p373
V\u6e56\u5357\u7701\u516c\u5b89\u5385
p374
sVRemarkPYInitial
p375
g52
sVContactFlag
p376
I3
sVUin
p377
I0
sVNickName
p378
V\u6e56\u5357\u516c\u5b89\u670d\u52a1\u5e73\u53f0
p379
sVAppAccountFlag
p380
I0
sVVerifyFlag
p381
I24
sVRemarkPYQuanPin
p382
g52
sVHeadImgUrl
p383
V/cgi-bin/mmwebwx-bin/webwxgeticon?seq=712860931&username=@c8b79136144247ce2b68b6a85b7a8498&skey=@crypt_dca481_b35c2939b81a11ffba13d48df082b1d0
p384
sVKeyWord
p385
Vgh_
p386
sVProvince
p387
V\u6e56\u5357
p388
sVPYInitial
p389
VHNGAFWPT
p390
sVRemarkName
p391
g52
sVIsOwner
p392
I0
sVSex
p393
I0
sVStarFriend
p394
I0
sVHideInputBarFlag
p395
I0
sVChatRoomId
p396
I0
sVEncryChatRoomId
p397
g52
sVAttrStatus
p398
I0
sVStatues
p399
I0
stp400
Rp401
I1
bag34
(g273
g39
(dp402
VUserName
p403
V@e261bc0c1626daf4f3b5417890cf67e9
p404
sVCity
p405
g52
sVSnsFlag
p406
I0
sVDisplayName
p407
g52
sVUniFriend
p408
I0
sVMemberCount
p409
I0
sVOwnerUin
p410
I0
sVMemberList
p411
g50
sVAlias
p412
g52
sVPYQuanPin
p413
Vzhongyousudiyi
p414
sVSignature
p415
V\u4e2d\u90ae\u901f\u9012\u6613\u5b98\u65b9\u670d\u52a1\u53f7\uff1a\u63d0\u4f9b\u626b\u7801\u5f00\u7bb1\u3001\u5feb\u4ef6\u4fe1\u606f\u901a\u77e5\u548c\u67e5\u8be2\u3001\u5728\u7ebf\u5ba2\u670d\u7b49\u670d\u52a1
p416
sVRemarkPYInitial
p417
g52
sVContactFlag
p418
I3
sVUin
p419
I0
sVNickName
p420
V\u4e2d\u90ae\u901f\u9012\u6613
p421
sVAppAccountFlag
p422
I0
sVVerifyFlag
p423
I24
sVRemarkPYQuanPin
p424
g52
sVHeadImgUrl
p425
V/cgi-bin/mmwebwx-bin/webwxgeticon?seq=712841980&username=@e261bc0c1626daf4f3b5417890cf67e9&skey=@crypt_dca481_b35c2939b81a11ffba13d48df082b1d0
p426
sVKeyWord
p427
Vgh_
p428
sVProvince
p429
V\u56db\u5ddd
p430
sVPYInitial
p431
VZYSDY
p432
sVRemarkName
p433
g52
sVIsOwner
p434
I0
sVSex
p435
I0
sVStarFriend
p436
I0
sVHideInputBarFlag
p437
I0
sVChatRoomId
p438
I0
sVEncryChatRoomId
p439
g52
sVAttrStatus
p440
I0
sVStatues
p441
I0
stp442
Rp443
I1
batp444
Rp445
I1
bssS'loginInfo'
p446
(dp447
S'SyncKey'
p448
(dp449
VCount
p450
I4
sVList
p451
(lp452
(dp453
VVal
p454
I712878854
sVKey
p455
I1
sa(dp456
VVal
p457
I712878975
sVKey
p458
I2
sa(dp459
VVal
p460
I712878966
sVKey
p461
I3
sa(dp462
VVal
p463
I1564037162
sVKey
p464
I1000
sassS'syncUrl'
p465
S'https://webpush.wx.qq.com/cgi-bin/mmwebwx-bin'
p466
sS'skey'
p467
V@crypt_dca481_b35c2939b81a11ffba13d48df082b1d0
p468
sS'wxuin'
p469
V233112195
p470
sS'synckey'
p471
S'1_712878854|2_712878975|3_712878966|1000_1564037162'
p472
sS'url'
p473
Vhttps://wx.qq.com/cgi-bin/mmwebwx-bin
p474
sS'pass_ticket'
p475
VdM9mJuVk0t9slMZ6RQNlTcVBrBDjMBrI%2F4sGSj9V1eI%3D
p476
sS'wxsid'
p477
VeE6Kc4MbNHAlfQ8t
p478
sS'BaseRequest'
p479
(dp480
g54
g470
sS'Skey'
p481
g468
sS'DeviceID'
p482
g476
sS'Sid'
p483
g478
ssS'deviceid'
p484
S'e234827259005378'
p485
sS'fileUrl'
p486
S'https://file.wx.qq.com/cgi-bin/mmwebwx-bin'
p487
sS'InviteStartCount'
p488
I40
sS'User'
p489
g34
(g38
g39
(dp490
g41
g31
sg42
g43
sg44
g43
sg45
I0
sg47
g50
sg51
g52
sg53
g52
sg78
I1
sg55
I0
sg56
I0
sg57
g43
sg58
g43
sg59
g52
sg60
g52
sg61
I0
sg62
I0
sg63
I1
sg64
g43
sg65
I0
sg68
I0
sg66
I17
sg67
I0
sg46
I0
sg69
g43
sg70
g71
sg72
I0
sg73
g74
sg75
g52
sg76
g77
sg54
I233112195
sg79
I0
sg80
I0
stp491
Rp492
I1
bss.